Certificate:
    Data:
        Version: 3 (0x2)
        Serial Number:
            db:d7:68:41:f4:0d:1f:20
    Signature Algorithm: sha1WithRSAEncryption
        Issuer: C=VG, ST=Tortola, O=Lamassu, Inc, CN=lamassu.is
        Validity
            Not Before: Sep 16 09:47:09 2016 GMT
            Not After : Sep 14 09:47:09 2026 GMT
        Subject: C=VG, ST=Tortola, O=Lamassu, Inc, CN=lamassu.is
        Subject Public Key Info:
            Public Key Algorithm: rsaEncryption
                Public-Key: (4096 bit)
                Modulus:
                    00:ba:27:ae:de:eb:1c:f3:95:9c:f6:3a:8c:c1:d4:
                    21:93:f7:52:ad:e6:b1:1b:bb:86:46:cc:5d:5d:42:
                    40:66:0e:74:d3:04:1a:fe:3e:cd:42:4e:f5:95:7e:
                    fe:c2:9d:03:bf:bc:ca:83:16:95:b7:80:cf:d7:ff:
                    d5:86:4a:16:e6:98:79:bc:2b:97:9f:c8:81:4b:6d:
                    55:d2:b5:13:b1:98:18:b2:e9:9f:af:88:8e:38:65:
                    50:3a:66:56:5e:ea:5f:4f:e2:3e:3e:fc:08:3d:27:
                    67:92:8a:4d:14:1f:47:64:54:fa:e0:91:7c:01:52:
                    77:c5:99:15:ed:e8:2f:2e:de:02:e3:dd:0b:ff:8e:
                    55:74:ab:42:82:05:e0:3f:18:a6:65:46:4f:bc:67:
                    34:a5:e8:dc:67:5e:59:ee:6c:dc:50:72:0d:d3:b3:
                    91:d8:fa:d4:94:84:4d:d1:c6:94:9d:92:08:e8:09:
                    02:24:20:02:7f:2d:c9:94:2b:64:fe:ab:57:cd:42:
                    f0:c8:d1:1d:07:d9:f4:b9:c1:17:69:2c:1a:ad:14:
                    3f:2f:3c:c6:de:3f:ed:e2:3c:f6:98:b4:34:9b:6e:
                    17:ae:91:c7:70:cf:5e:dd:bb:10:d1:1f:a0:3a:4f:
                    e0:34:50:32:a9:d2:95:8d:e2:d0:a8:87:dd:68:33:
                    04:f3:34:c5:2b:9a:e7:d0:1c:de:8f:da:0b:3c:9d:
                    95:9d:36:ce:ab:c2:6b:c9:04:02:a2:0a:34:9e:aa:
                    32:8e:3c:20:62:94:bf:63:27:c0:f8:f9:4a:9a:29:
                    53:87:1b:c7:f5:2b:3f:04:29:8c:fe:c2:6f:0a:d0:
                    f3:9b:07:b8:12:ce:27:08:5d:93:d2:b0:95:85:ef:
                    66:15:61:cc:b8:66:23:03:2f:5d:35:a5:88:53:83:
                    1f:9e:8a:33:5e:e7:dc:a1:99:5a:1d:cd:3f:bd:75:
                    00:d9:d0:11:6d:5b:8d:5c:08:4c:24:b9:77:03:aa:
                    f6:58:c7:d0:b9:d9:41:94:2b:83:c0:80:b5:40:da:
                    00:df:a4:02:28:89:61:ee:12:32:9c:16:6a:ee:c8:
                    a5:30:83:fa:ff:c3:5b:ab:1d:e1:a5:85:92:95:a6:
                    bd:e4:64:e9:d3:c6:b9:35:b3:f7:07:a0:fe:7e:15:
                    bb:18:e6:eb:cc:24:53:64:f2:d6:dc:1b:9f:a0:13:
                    c0:d9:68:5d:c3:6b:f8:c7:51:cf:65:b6:23:d1:3b:
                    f2:28:c0:b3:d3:9e:1c:df:ee:90:ba:92:d2:a9:a2:
                    f7:2b:15:d1:87:ab:80:05:ee:d9:7e:00:98:68:a6:
                    a0:dc:1f:c8:8d:64:38:fd:04:47:5b:4a:0c:c1:50:
                    aa:28:5f
                Exponent: 65537 (0x10001)
        X509v3 extensions:
            X509v3 Subject Key Identifier: 
                5C:6E:D7:14:40:00:1B:3E:EE:4B:60:79:83:06:99:19:30:37:EC:16
            X509v3 Authority Key Identifier: 
                keyid:5C:6E:D7:14:40:00:1B:3E:EE:4B:60:79:83:06:99:19:30:37:EC:16

            X509v3 Basic Constraints: 
                CA:TRUE
    Signature Algorithm: sha1WithRSAEncryption
         a0:30:47:7b:18:7f:46:e2:a2:ce:6f:2f:b5:83:e5:93:f3:6a:
         cf:2e:97:8f:82:03:3f:84:56:f6:f2:7a:e8:c2:fb:1e:43:7f:
         a7:f1:fe:79:77:40:28:ba:13:aa:51:dd:09:2e:28:fb:e9:dd:
         93:87:db:71:41:66:b8:87:74:82:0f:93:03:52:4f:5d:56:07:
         ed:83:f7:76:a7:fe:c9:b0:81:5e:ca:8d:fb:79:8a:0c:7a:a8:
         d8:ee:ec:4f:fe:63:e8:68:f7:81:2d:a5:2e:ac:7c:e1:bb:5d:
         25:c4:9b:9e:fc:01:94:68:35:e4:9e:db:9d:d0:96:b1:9d:64:
         bc:44:42:26:4d:b6:50:7a:fd:63:e6:29:2b:56:eb:63:34:91:
         57:27:43:aa:d6:95:9b:b1:33:9b:11:60:97:66:24:ad:8b:39:
         cb:da:34:0f:3f:c6:f6:8c:e6:f0:48:cb:8f:16:6f:14:0e:54:
         56:0b:5d:db:ed:4f:6c:bc:9a:b4:b7:88:e0:7b:db:0c:b4:c8:
         15:62:2e:8a:d0:4a:9e:43:6f:22:73:74:7e:f7:19:58:80:b1:
         d8:ff:c9:5a:06:a4:95:19:17:17:e3:62:6e:b2:49:4c:eb:40:
         37:c8:05:c4:c7:1d:af:d6:72:48:6a:ec:41:87:0b:a2:1e:27:
         ea:ba:b4:55:5b:2e:21:e5:16:88:35:de:70:35:a5:3f:74:82:
         f2:6b:5e:1d:99:23:91:67:83:13:ee:7a:d5:fa:c8:3d:f0:61:
         f5:0c:bd:b0:8b:f8:9d:16:e0:58:8c:5d:2f:4d:53:47:fe:50:
         2a:d7:67:c9:a2:8e:4b:23:a2:c5:74:60:a4:d1:81:f9:dd:c1:
         78:33:c4:0e:7f:82:af:cf:eb:4e:23:75:7b:f0:a2:ab:50:ab:
         75:2b:43:1b:c4:a8:49:11:21:47:05:f7:7e:dc:9c:c6:f3:ee:
         a7:67:62:77:0d:cf:4e:c9:25:85:09:9e:a2:8d:14:c8:4b:76:
         f0:ca:2f:57:55:13:10:db:d9:ec:2d:6a:9c:f0:e2:ba:49:a1:
         c6:70:4e:dd:8b:e4:68:b6:18:36:ba:be:c1:3a:2b:ec:08:31:
         e3:68:23:fc:03:20:27:fa:3a:67:fc:28:fa:8a:7d:17:fa:bb:
         cf:27:4c:e0:33:54:71:d2:93:8c:c0:8e:23:8e:bd:c6:90:dd:
         6b:cd:b7:70:a2:61:c3:d5:3b:3a:51:15:ce:fb:80:bf:89:f0:
         17:a8:b5:1e:a7:91:28:ef:32:d9:88:33:c6:b2:ed:e0:c6:98:
         55:d8:b8:29:c7:e6:0c:e2:04:df:d9:7e:2d:f7:c7:9e:e3:e0:
         35:c6:04:4b:e7:af:33:99
-----BEGIN CERTIFICATE-----
MIIFaTCCA1GgAwIBAgIJANvXaEH0DR8gMA0GCSqGSIb3DQEBBQUAMEsxCzAJBgNV
BAYTAlZHMRAwDgYDVQQIDAdUb3J0b2xhMRUwEwYDVQQKDAxMYW1hc3N1LCBJbmMx
EzARBgNVBAMMCmxhbWFzc3UuaXMwHhcNMTYwOTE2MDk0NzA5WhcNMjYwOTE0MDk0
NzA5WjBLMQswCQYDVQQGEwJWRzEQMA4GA1UECAwHVG9ydG9sYTEVMBMGA1UECgwM
TGFtYXNzdSwgSW5jMRMwEQYDVQQDDApsYW1hc3N1LmlzMIICIjANBgkqhkiG9w0B
AQEFAAOCAg8AMIICCgKCAgEAuieu3usc85Wc9jqMwdQhk/dSreaxG7uGRsxdXUJA
Zg500wQa/j7NQk71lX7+wp0Dv7zKgxaVt4DP1//VhkoW5ph5vCuXn8iBS21V0rUT
sZgYsumfr4iOOGVQOmZWXupfT+I+PvwIPSdnkopNFB9HZFT64JF8AVJ3xZkV7egv
Lt4C490L/45VdKtCggXgPximZUZPvGc0pejcZ15Z7mzcUHIN07OR2PrUlIRN0caU
nZII6AkCJCACfy3JlCtk/qtXzULwyNEdB9n0ucEXaSwarRQ/LzzG3j/t4jz2mLQ0
m24XrpHHcM9e3bsQ0R+gOk/gNFAyqdKVjeLQqIfdaDME8zTFK5rn0Bzej9oLPJ2V
nTbOq8JryQQCogo0nqoyjjwgYpS/YyfA+PlKmilThxvH9Ss/BCmM/sJvCtDzmwe4
Es4nCF2T0rCVhe9mFWHMuGYjAy9dNaWIU4MfnoozXufcoZlaHc0/vXUA2dARbVuN
XAhMJLl3A6r2WMfQudlBlCuDwIC1QNoA36QCKIlh7hIynBZq7silMIP6/8Nbqx3h
pYWSlaa95GTp08a5NbP3B6D+fhW7GObrzCRTZPLW3BufoBPA2Whdw2v4x1HPZbYj
0TvyKMCz054c3+6QupLSqaL3KxXRh6uABe7ZfgCYaKag3B/IjWQ4/QRHW0oMwVCq
KF8CAwEAAaNQME4wHQYDVR0OBBYEFFxu1xRAABs+7ktgeYMGmRkwN+wWMB8GA1Ud
IwQYMBaAFFxu1xRAABs+7ktgeYMGmRkwN+wWMAwGA1UdEwQFMAMBAf8wDQYJKoZI
hvcNAQEFBQADggIBAKAwR3sYf0bios5vL7WD5ZPzas8ul4+CAz+EVvbyeujC+x5D
f6fx/nl3QCi6E6pR3QkuKPvp3ZOH23FBZriHdIIPkwNST11WB+2D93an/smwgV7K
jft5igx6qNju7E/+Y+ho94EtpS6sfOG7XSXEm578AZRoNeSe253QlrGdZLxEQiZN
tlB6/WPmKStW62M0kVcnQ6rWlZuxM5sRYJdmJK2LOcvaNA8/xvaM5vBIy48WbxQO
VFYLXdvtT2y8mrS3iOB72wy0yBViLorQSp5DbyJzdH73GViAsdj/yVoGpJUZFxfj
Ym6ySUzrQDfIBcTHHa/Wckhq7EGHC6IeJ+q6tFVbLiHlFog13nA1pT90gvJrXh2Z
I5FngxPuetX6yD3wYfUMvbCL+J0W4FiMXS9NU0f+UCrXZ8mijksjosV0YKTRgfnd
wXgzxA5/gq/P604jdXvwoqtQq3UrQxvEqEkRIUcF937cnMbz7qdnYncNz07JJYUJ
nqKNFMhLdvDKL1dVExDb2ewtapzw4rpJocZwTt2L5Gi2GDa6vsE6K+wIMeNoI/wD
ICf6Omf8KPqKfRf6u88nTOAzVHHSk4zAjiOOvcaQ3WvNt3CiYcPVOzpRFc77gL+J
8BeotR6nkSjvMtmIM8ay7eDGmFXYuCnH5gziBN/Zfi33x57j4DXGBEvnrzOZ
-----END CERTIFICATE-----
